Certificate:
    Data:
        Version: 3 (0x2)
        Serial Number: 1 (0x1)
        Signature Algorithm: sha256WithRSAEncryption
        Issuer: C=ID, ST=Yogyakarta, L=Yogyakarta, O=Universitas Anda, OU=Yogyakarta research and education network, CN=University Certificate Authority
        Validity
            Not Before: Oct 26 02:25:09 2023 GMT
            Not After : Dec 25 02:25:09 2023 GMT
        Subject: C=ID, ST=Yogyakarta, O=Universitas Anda, OU=Yogyakarta research and education network, CN=university.ac.id
        Subject Public Key Info:
            Public Key Algorithm: rsaEncryption
                Public-Key: (2048 bit)
                Modulus:
                    00:9c:77:b8:36:2f:a2:5d:39:ec:f0:4b:95:59:14:
                    c1:46:bf:59:54:e7:f3:fb:47:e6:ea:5c:f6:15:b9:
                    52:7e:05:7b:81:0a:a4:1a:2e:8e:05:ea:72:a2:67:
                    22:25:7c:a8:e1:3a:b7:45:9a:7e:31:75:06:91:53:
                    8c:23:bd:7d:c4:6f:88:7b:c8:ce:e2:a5:52:eb:2c:
                    98:3d:a9:91:57:99:1e:e4:da:e0:72:d9:09:18:b4:
                    16:26:04:ed:c8:60:4f:e5:c8:a6:e2:b7:fb:c1:4f:
                    46:2d:cf:e4:52:88:97:ab:a2:e2:d7:91:82:43:1f:
                    64:82:9f:50:79:7e:57:6f:5f:f2:14:14:c0:9c:ef:
                    b8:ac:ef:ec:1f:ed:45:4b:7e:b2:de:4e:5e:44:97:
                    94:3b:70:e7:aa:1f:6d:7c:4e:6c:7d:20:eb:57:0c:
                    bf:8e:27:4a:02:2d:a3:f6:cb:ff:1d:db:18:f2:b5:
                    f7:8b:b5:d3:11:fb:21:1e:e1:cb:9d:a5:c8:5c:59:
                    ba:7b:e0:77:ac:cf:d7:83:a4:07:25:e2:0f:90:4c:
                    df:23:d9:37:d1:76:8e:4d:fb:28:77:49:13:92:bc:
                    65:fc:50:f8:5b:65:64:2a:1b:91:08:71:f9:35:77:
                    38:a4:72:a0:7a:9c:4b:de:96:36:07:64:e8:84:ec:
                    8b:e1
                Exponent: 65537 (0x10001)
        X509v3 extensions:
            X509v3 Extended Key Usage: 
                TLS Web Server Authentication
            X509v3 Subject Key Identifier: 
                FA:AD:BD:FD:A8:CA:9C:32:A3:E7:B1:80:88:1A:07:CC:3F:CB:3F:BF
            X509v3 Authority Key Identifier: 
                4C:35:C1:73:D6:DC:BA:43:2A:7A:8F:A9:D2:C8:E8:00:AE:67:70:28
    Signature Algorithm: sha256WithRSAEncryption
    Signature Value:
        69:4b:bb:08:8d:69:17:1f:0d:32:85:41:22:c9:1c:fa:7c:b3:
        df:0f:dd:76:13:fe:32:b7:25:e0:4b:6e:db:f4:e6:5a:ca:64:
        ae:e0:90:44:48:3f:d1:15:68:73:f5:36:c5:d4:4f:a5:ae:4b:
        db:f1:ca:f8:50:8c:61:1a:8c:16:c0:46:c4:f1:9b:59:24:10:
        af:7e:c0:31:da:04:e6:0f:44:08:9e:8b:7e:da:21:c1:1b:4a:
        2a:ce:3f:a9:b9:5f:33:a7:ff:cb:13:f2:96:f5:4c:d8:9b:44:
        2a:93:f8:24:bf:9d:1b:cf:c1:83:b2:7a:b2:49:f8:cb:0c:ef:
        2f:80:b7:b6:b5:d3:dc:be:81:2c:95:e6:1c:5c:11:3d:bf:33:
        d9:2d:b9:ec:b2:75:bb:cf:34:a7:d7:db:94:94:19:c8:1e:82:
        bf:f0:36:9f:b9:d7:62:4e:85:65:65:bb:8d:59:d4:04:52:df:
        5d:1d:be:3a:19:1b:f9:00:a2:73:b5:00:74:75:55:d4:9a:44:
        74:f2:39:04:91:72:aa:f3:8d:94:a9:94:10:6c:9c:85:b3:a8:
        3a:70:d6:5b:a5:8b:8f:c9:62:96:b0:83:0d:1b:d1:76:6f:d7:
        09:3f:31:40:79:25:17:1b:e1:91:8e:e3:cc:10:3b:08:a7:d5:
        13:aa:9b:00
-----BEGIN CERTIFICATE-----
MIIEETCCAvmgAwIBAgIBATANBgkqhkiG9w0BAQsFADCBsTELMAkGA1UEBhMCSUQx
EzARBgNVBAgMCllvZ3lha2FydGExEzARBgNVBAcMCllvZ3lha2FydGExGTAXBgNV
BAoMEFVuaXZlcnNpdGFzIEFuZGExMjAwBgNVBAsMKVlvZ3lha2FydGEgcmVzZWFy
Y2ggYW5kIGVkdWNhdGlvbiBuZXR3b3JrMSkwJwYDVQQDDCBVbml2ZXJzaXR5IENl
cnRpZmljYXRlIEF1dGhvcml0eTAeFw0yMzEwMjYwMjI1MDlaFw0yMzEyMjUwMjI1
MDlaMIGMMQswCQYDVQQGEwJJRDETMBEGA1UECAwKWW9neWFrYXJ0YTEZMBcGA1UE
CgwQVW5pdmVyc2l0YXMgQW5kYTEyMDAGA1UECwwpWW9neWFrYXJ0YSByZXNlYXJj
aCBhbmQgZWR1Y2F0aW9uIG5ldHdvcmsxGTAXBgNVBAMMEHVuaXZlcnNpdHkuYWMu
aWQwggEiMA0GCSqGSIb3DQEBAQUAA4IBDwAwggEKAoIBAQCcd7g2L6JdOezwS5VZ
FMFGv1lU5/P7R+bqXPYVuVJ+BXuBCqQaLo4F6nKiZyIlfKjhOrdFmn4xdQaRU4wj
vX3Eb4h7yM7ipVLrLJg9qZFXmR7k2uBy2QkYtBYmBO3IYE/lyKbit/vBT0Ytz+RS
iJerouLXkYJDH2SCn1B5fldvX/IUFMCc77is7+wf7UVLfrLeTl5El5Q7cOeqH218
Tmx9IOtXDL+OJ0oCLaP2y/8d2xjytfeLtdMR+yEe4cudpchcWbp74Hesz9eDpAcl
4g+QTN8j2TfRdo5N+yh3SROSvGX8UPhbZWQqG5EIcfk1dzikcqB6nEveljYHZOiE
7IvhAgMBAAGjVzBVMBMGA1UdJQQMMAoGCCsGAQUFBwMBMB0GA1UdDgQWBBT6rb39
qMqcMqPnsYCIGgfMP8s/vzAfBgNVHSMEGDAWgBRMNcFz1ty6Qyp6j6nSyOgArmdw
KDANBgkqhkiG9w0BAQsFAAOCAQEAaUu7CI1pFx8NMoVBIskc+nyz3w/ddhP+Mrcl
4Etu2/TmWspkruCQREg/0RVoc/U2xdRPpa5L2/HK+FCMYRqMFsBGxPGbWSQQr37A
MdoE5g9ECJ6LftohwRtKKs4/qblfM6f/yxPylvVM2JtEKpP4JL+dG8/Bg7J6skn4
ywzvL4C3trXT3L6BLJXmHFwRPb8z2S257LJ1u880p9fblJQZyB6Cv/A2n7nXYk6F
ZWW7jVnUBFLfXR2+Ohkb+QCic7UAdHVV1JpEdPI5BJFyqvONlKmUEGychbOoOnDW
W6WLj8lilrCDDRvRdm/XCT8xQHklFxvhkY7jzBA7CKfVE6qbAA==
-----END CERTIFICATE-----
